target datalayout = "e-m:e-p270:32:32-p271:32:32-p272:64:64-i64:64-i128:128-f80:128-n8:16:32:64-S128"
target triple = "x86_64-pc-linux-gnu"

%struct.Map_ManStruct_t_ = type { ptr, i32, ptr, i32, ptr, i32, i32, ptr, ptr, ptr, ptr, ptr, ptr, ptr, ptr, i32, i32, i32, i32, float, float, float, float, i32, i32, float, i32, i32, i32, i32, ptr, [6 x [2 x i32]], [10 x [32 x i32]], [32 x i32], [32 x i32], ptr, ptr, ptr, ptr, ptr, ptr, i32, i32, i32, i32, i32, i32, i64, i64, i64, i64, i64, i64, i64, i64, i64, i64, i64 }
%struct.Map_NodeStruct_t_ = type { ptr, ptr, i32, i32, i32, i32, [3 x i32], [3 x float], float, ptr, ptr, ptr, ptr, [2 x %struct.Map_TimeStruct_t_], [2 x %struct.Map_TimeStruct_t_], [2 x ptr], ptr, ptr, ptr }
%struct.Map_TimeStruct_t_ = type { float, float, float }

; Function Attrs: nounwind uwtable
define ptr @Map_NodeCreate(ptr noundef %0, ptr noundef %1, ptr noundef %2) #0 {
  %4 = alloca ptr, align 8
  %5 = alloca ptr, align 8
  %6 = alloca ptr, align 8
  %7 = alloca ptr, align 8
  store ptr %0, ptr %4, align 8, !tbaa !3
  store ptr %1, ptr %5, align 8, !tbaa !29
  store ptr %2, ptr %6, align 8, !tbaa !29
  call void @llvm.lifetime.start.p0(i64 8, ptr %7) #12
  %8 = load ptr, ptr %4, align 8, !tbaa !3
  %9 = getelementptr inbounds nuw %struct.Map_ManStruct_t_, ptr %8, i32 0, i32 36
  %10 = load ptr, ptr %9, align 8, !tbaa !93
  %11 = call ptr @Extra_MmFixedEntryFetch(ptr noundef %10)
  store ptr %11, ptr %7, align 8, !tbaa !29
  %12 = load ptr, ptr %7, align 8, !tbaa !29
  call void @llvm.memset.p0.i64(ptr align 8 %12, i8 0, i64 184, i1 false)
  %13 = load ptr, ptr %7, align 8, !tbaa !29
  %14 = getelementptr inbounds nuw %struct.Map_NodeStruct_t_, ptr %13, i32 0, i32 14
  %15 = getelementptr inbounds [2 x %struct.Map_TimeStruct_t_], ptr %14, i64 0, i64 0
  %16 = getelementptr inbounds nuw %struct.Map_TimeStruct_t_, ptr %15, i32 0, i32 2
  store float 0x47B9999980000000, ptr %16, align 8, !tbaa !102
  %17 = load ptr, ptr %7, align 8, !tbaa !29
  %18 = getelementptr inbounds nuw %struct.Map_NodeStruct_t_, ptr %17, i32 0, i32 14
  %19 = getelementptr inbounds [2 x %struct.Map_TimeStruct_t_], ptr %18, i64 0, i64 0
  %20 = getelementptr inbounds nuw %struct.Map_TimeStruct_t_, ptr %19, i32 0, i32 1
  store float 0x47B9999980000000, ptr %20, align 4, !tbaa !103
  %21 = load ptr, ptr %7, align 8, !tbaa !29
  %22 = getelementptr inbounds nuw %struct.Map_NodeStruct_t_, ptr %21, i32 0, i32 14
  %23 = getelementptr inbounds [2 x %struct.Map_TimeStruct_t_], ptr %22, i64 0, i64 0
  %24 = getelementptr inbounds nuw %struct.Map_TimeStruct_t_, ptr %23, i32 0, i32 0
  store float 0x47B9999980000000, ptr %24, align 8, !tbaa !104
  %25 = load ptr, ptr %7, align 8, !tbaa !29
  %26 = getelementptr inbounds nuw %struct.Map_NodeStruct_t_, ptr %25, i32 0, i32 14
  %27 = getelementptr inbounds [2 x %struct.Map_TimeStruct_t_], ptr %26, i64 0, i64 1
  %28 = getelementptr inbounds nuw %struct.Map_TimeStruct_t_, ptr %27, i32 0, i32 2
  store float 0x47B9999980000000, ptr %28, align 4, !tbaa !102
  %29 = load ptr, ptr %7, align 8, !tbaa !29
  %30 = getelementptr inbounds nuw %struct.Map_NodeStruct_t_, ptr %29, i32 0, i32 14
  %31 = getelementptr inbounds [2 x %struct.Map_TimeStruct_t_], ptr %30, i64 0, i64 1
  %32 = getelementptr inbounds nuw %struct.Map_TimeStruct_t_, ptr %31, i32 0, i32 1
  store float 0x47B9999980000000, ptr %32, align 4, !tbaa !103
  %33 = load ptr, ptr %7, align 8, !tbaa !29
  %34 = getelementptr inbounds nuw %struct.Map_NodeStruct_t_, ptr %33, i32 0, i32 14
  %35 = getelementptr inbounds [2 x %struct.Map_TimeStruct_t_], ptr %34, i64 0, i64 1
  %36 = getelementptr inbounds nuw %struct.Map_TimeStruct_t_, ptr %35, i32 0, i32 0
  store float 0x47B9999980000000, ptr %36, align 4, !tbaa !104
  %37 = load ptr, ptr %5, align 8, !tbaa !29
  %38 = load ptr, ptr %7, align 8, !tbaa !29
  %39 = getelementptr inbounds nuw %struct.Map_NodeStruct_t_, ptr %38, i32 0, i32 9
  store ptr %37, ptr %39, align 8, !tbaa !30
  %40 = load ptr, ptr %6, align 8, !tbaa !29
  %41 = load ptr, ptr %7, align 8, !tbaa !29
  %42 = getelementptr inbounds nuw %struct.Map_NodeStruct_t_, ptr %41, i32 0, i32 10
  store ptr %40, ptr %42, align 8, !tbaa !70
  %43 = load ptr, ptr %4, align 8, !tbaa !3
  %44 = load ptr, ptr %7, align 8, !tbaa !29
  %45 = getelementptr inbounds nuw %struct.Map_NodeStruct_t_, ptr %44, i32 0, i32 0
  store ptr %43, ptr %45, align 8, !tbaa !64
  %46 = load ptr, ptr %4, align 8, !tbaa !3
  %47 = getelementptr inbounds nuw %struct.Map_ManStruct_t_, ptr %46, i32 0, i32 6
  %48 = load i32, ptr %47, align 4, !tbaa !95
  %49 = add nsw i32 %48, 1
  store i32 %49, ptr %47, align 4, !tbaa !95
  %50 = load ptr, ptr %7, align 8, !tbaa !29
  %51 = getelementptr inbounds nuw %struct.Map_NodeStruct_t_, ptr %50, i32 0, i32 2
  store i32 %48, ptr %51, align 8, !tbaa !67
  %52 = load ptr, ptr %7, align 8, !tbaa !29
  %53 = getelementptr inbounds nuw %struct.Map_NodeStruct_t_, ptr %52, i32 0, i32 2
  %54 = load i32, ptr %53, align 8, !tbaa !67
  %55 = icmp sge i32 %54, 0
  br i1 %55, label %56, label %61

56:                                               ; preds = %3
  %57 = load ptr, ptr %4, align 8, !tbaa !3
  %58 = getelementptr inbounds nuw %struct.Map_ManStruct_t_, ptr %57, i32 0, i32 8
  %59 = load ptr, ptr %58, align 8, !tbaa !96
  %60 = load ptr, ptr %7, align 8, !tbaa !29
  call void @Map_NodeVecPush(ptr noundef %59, ptr noundef %60)
  br label %67

61:                                               ; preds = %3
  %62 = load ptr, ptr %7, align 8, !tbaa !29
  %63 = getelementptr inbounds nuw %struct.Map_NodeStruct_t_, ptr %62, i32 0, i32 5
  %64 = load i32, ptr %63, align 4
  %65 = and i32 %64, -9
  %66 = or i32 %65, 8
  store i32 %66, ptr %63, align 4
  br label %67

67:                                               ; preds = %61, %56
  %68 = load ptr, ptr %5, align 8, !tbaa !29
  %69 = icmp ne ptr %68, null
  br i1 %69, label %70, label %236

70:                                               ; preds = %67
  %71 = load ptr, ptr %6, align 8, !tbaa !29
  %72 = icmp ne ptr %71, null
  br i1 %72, label %73, label %185

73:                                               ; preds = %70
  %74 = load ptr, ptr %7, align 8, !tbaa !29
  %75 = getelementptr inbounds nuw %struct.Map_NodeStruct_t_, ptr %74, i32 0, i32 9
  %76 = load ptr, ptr %75, align 8, !tbaa !30
  %77 = ptrtoint ptr %76 to i64
  %78 = and i64 %77, -2
  %79 = inttoptr i64 %78 to ptr
  %80 = getelementptr inbounds nuw %struct.Map_NodeStruct_t_, ptr %79, i32 0, i32 5
  %81 = load i32, ptr %80, align 4
  %82 = lshr i32 %81, 5
  %83 = and i32 %82, 65535
  %84 = load ptr, ptr %7, align 8, !tbaa !29
  %85 = getelementptr inbounds nuw %struct.Map_NodeStruct_t_, ptr %84, i32 0, i32 10
  %86 = load ptr, ptr %85, align 8, !tbaa !70
  %87 = ptrtoint ptr %86 to i64
  %88 = and i64 %87, -2
  %89 = inttoptr i64 %88 to ptr
  %90 = getelementptr inbounds nuw %struct.Map_NodeStruct_t_, ptr %89, i32 0, i32 5
  %91 = load i32, ptr %90, align 4
  %92 = lshr i32 %91, 5
  %93 = and i32 %92, 65535
  %94 = icmp sgt i32 %83, %93
  br i1 %94, label %95, label %106

95:                                               ; preds = %73
  %96 = load ptr, ptr %7, align 8, !tbaa !29
  %97 = getelementptr inbounds nuw %struct.Map_NodeStruct_t_, ptr %96, i32 0, i32 9
  %98 = load ptr, ptr %97, align 8, !tbaa !30
  %99 = ptrtoint ptr %98 to i64
  %100 = and i64 %99, -2
  %101 = inttoptr i64 %100 to ptr
  %102 = getelementptr inbounds nuw %struct.Map_NodeStruct_t_, ptr %101, i32 0, i32 5
  %103 = load i32, ptr %102, align 4
  %104 = lshr i32 %103, 5
  %105 = and i32 %104, 65535
  br label %117

106:                                              ; preds = %73
  %107 = load ptr, ptr %7, align 8, !tbaa !29
  %108 = getelementptr inbounds nuw %struct.Map_NodeStruct_t_, ptr %107, i32 0, i32 10
  %109 = load ptr, ptr %108, align 8, !tbaa !70
  %110 = ptrtoint ptr %109 to i64
  %111 = and i64 %110, -2
  %112 = inttoptr i64 %111 to ptr
  %113 = getelementptr inbounds nuw %struct.Map_NodeStruct_t_, ptr %112, i32 0, i32 5
  %114 = load i32, ptr %113, align 4
  %115 = lshr i32 %114, 5
  %116 = and i32 %115, 65535
  br label %117

117:                                              ; preds = %106, %95
  %118 = phi i32 [ %105, %95 ], [ %116, %106 ]
  %119 = add nsw i32 1, %118
  %120 = load ptr, ptr %7, align 8, !tbaa !29
  %121 = getelementptr inbounds nuw %struct.Map_NodeStruct_t_, ptr %120, i32 0, i32 5
  %122 = load i32, ptr %121, align 4
  %123 = and i32 %119, 65535
  %124 = shl i32 %123, 5
  %125 = and i32 %122, -2097121
  %126 = or i32 %125, %124
  store i32 %126, ptr %121, align 4
  %127 = load ptr, ptr %5, align 8, !tbaa !29
  %128 = ptrtoint ptr %127 to i64
  %129 = and i64 %128, 1
  %130 = trunc i64 %129 to i32
  %131 = icmp ne i32 %130, 0
  br i1 %131, label %132, label %144

132:                                              ; preds = %117
  %133 = load ptr, ptr %5, align 8, !tbaa !29
  %134 = ptrtoint ptr %133 to i64
  %135 = and i64 %134, -2
  %136 = inttoptr i64 %135 to ptr
  %137 = getelementptr inbounds nuw %struct.Map_NodeStruct_t_, ptr %136, i32 0, i32 5
  %138 = load i32, ptr %137, align 4
  %139 = lshr i32 %138, 3
  %140 = and i32 %139, 1
  %141 = icmp ne i32 %140, 0
  %142 = xor i1 %141, true
  %143 = zext i1 %142 to i32
  br label %150

144:                                              ; preds = %117
  %145 = load ptr, ptr %5, align 8, !tbaa !29
  %146 = getelementptr inbounds nuw %struct.Map_NodeStruct_t_, ptr %145, i32 0, i32 5
  %147 = load i32, ptr %146, align 4
  %148 = lshr i32 %147, 3
  %149 = and i32 %148, 1
  br label %150

150:                                              ; preds = %144, %132
  %151 = phi i32 [ %143, %132 ], [ %149, %144 ]
  %152 = load ptr, ptr %6, align 8, !tbaa !29
  %153 = ptrtoint ptr %152 to i64
  %154 = and i64 %153, 1
  %155 = trunc i64 %154 to i32
  %156 = icmp ne i32 %155, 0
  br i1 %156, label %157, label %169

157:                                              ; preds = %150
  %158 = load ptr, ptr %6, align 8, !tbaa !29
  %159 = ptrtoint ptr %158 to i64
  %160 = and i64 %159, -2
  %161 = inttoptr i64 %160 to ptr
  %162 = getelementptr inbounds nuw %struct.Map_NodeStruct_t_, ptr %161, i32 0, i32 5
  %163 = load i32, ptr %162, align 4
  %164 = lshr i32 %163, 3
  %165 = and i32 %164, 1
  %166 = icmp ne i32 %165, 0
  %167 = xor i1 %166, true
  %168 = zext i1 %167 to i32
  br label %175

169:                                              ; preds = %150
  %170 = load ptr, ptr %6, align 8, !tbaa !29
  %171 = getelementptr inbounds nuw %struct.Map_NodeStruct_t_, ptr %170, i32 0, i32 5
  %172 = load i32, ptr %171, align 4
  %173 = lshr i32 %172, 3
  %174 = and i32 %173, 1
  br label %175

175:                                              ; preds = %169, %157
  %176 = phi i32 [ %168, %157 ], [ %174, %169 ]
  %177 = and i32 %151, %176
  %178 = load ptr, ptr %7, align 8, !tbaa !29
  %179 = getelementptr inbounds nuw %struct.Map_NodeStruct_t_, ptr %178, i32 0, i32 5
  %180 = load i32, ptr %179, align 4
  %181 = and i32 %177, 1
  %182 = shl i32 %181, 3
  %183 = and i32 %180, -9
  %184 = or i32 %183, %182
  store i32 %184, ptr %179, align 4
  br label %235

185:                                              ; preds = %70
  %186 = load ptr, ptr %7, align 8, !tbaa !29
  %187 = getelementptr inbounds nuw %struct.Map_NodeStruct_t_, ptr %186, i32 0, i32 9
  %188 = load ptr, ptr %187, align 8, !tbaa !30
  %189 = ptrtoint ptr %188 to i64
  %190 = and i64 %189, -2
  %191 = inttoptr i64 %190 to ptr
  %192 = getelementptr inbounds nuw %struct.Map_NodeStruct_t_, ptr %191, i32 0, i32 5
  %193 = load i32, ptr %192, align 4
  %194 = lshr i32 %193, 5
  %195 = and i32 %194, 65535
  %196 = load ptr, ptr %7, align 8, !tbaa !29
  %197 = getelementptr inbounds nuw %struct.Map_NodeStruct_t_, ptr %196, i32 0, i32 5
  %198 = load i32, ptr %197, align 4
  %199 = and i32 %195, 65535
  %200 = shl i32 %199, 5
  %201 = and i32 %198, -2097121
  %202 = or i32 %201, %200
  store i32 %202, ptr %197, align 4
  %203 = load ptr, ptr %5, align 8, !tbaa !29
  %204 = ptrtoint ptr %203 to i64
  %205 = and i64 %204, 1
  %206 = trunc i64 %205 to i32
  %207 = icmp ne i32 %206, 0
  br i1 %207, label %208, label %220

208:                                              ; preds = %185
  %209 = load ptr, ptr %5, align 8, !tbaa !29
  %210 = ptrtoint ptr %209 to i64
  %211 = and i64 %210, -2
  %212 = inttoptr i64 %211 to ptr
  %213 = getelementptr inbounds nuw %struct.Map_NodeStruct_t_, ptr %212, i32 0, i32 5
  %214 = load i32, ptr %213, align 4
  %215 = lshr i32 %214, 3
  %216 = and i32 %215, 1
  %217 = icmp ne i32 %216, 0
  %218 = xor i1 %217, true
  %219 = zext i1 %218 to i32
  br label %226

220:                                              ; preds = %185
  %221 = load ptr, ptr %5, align 8, !tbaa !29
  %222 = getelementptr inbounds nuw %struct.Map_NodeStruct_t_, ptr %221, i32 0, i32 5
  %223 = load i32, ptr %222, align 4
  %224 = lshr i32 %223, 3
  %225 = and i32 %224, 1
  br label %226

226:                                              ; preds = %220, %208
  %227 = phi i32 [ %219, %208 ], [ %225, %220 ]
  %228 = load ptr, ptr %7, align 8, !tbaa !29
  %229 = getelementptr inbounds nuw %struct.Map_NodeStruct_t_, ptr %228, i32 0, i32 5
  %230 = load i32, ptr %229, align 4
  %231 = and i32 %227, 1
  %232 = shl i32 %231, 3
  %233 = and i32 %230, -9
  %234 = or i32 %233, %232
  store i32 %234, ptr %229, align 4
  br label %235

235:                                              ; preds = %226, %175
  br label %236

236:                                              ; preds = %235, %67
  %237 = load ptr, ptr %5, align 8, !tbaa !29
  %238 = icmp ne ptr %237, null
  br i1 %238, label %239, label %247

239:                                              ; preds = %236
  %240 = load ptr, ptr %5, align 8, !tbaa !29
  %241 = ptrtoint ptr %240 to i64
  %242 = and i64 %241, -2
  %243 = inttoptr i64 %242 to ptr
  %244 = getelementptr inbounds nuw %struct.Map_NodeStruct_t_, ptr %243, i32 0, i32 4
  %245 = load i32, ptr %244, align 8, !tbaa !105
  %246 = add nsw i32 %245, 1
  store i32 %246, ptr %244, align 8, !tbaa !105
  br label %247

247:                                              ; preds = %239, %236
  %248 = load ptr, ptr %6, align 8, !tbaa !29
  %249 = icmp ne ptr %248, null
  br i1 %249, label %250, label %258

250:                                              ; preds = %247
  %251 = load ptr, ptr %6, align 8, !tbaa !29
  %252 = ptrtoint ptr %251 to i64
  %253 = and i64 %252, -2
  %254 = inttoptr i64 %253 to ptr
  %255 = getelementptr inbounds nuw %struct.Map_NodeStruct_t_, ptr %254, i32 0, i32 4
  %256 = load i32, ptr %255, align 8, !tbaa !105
  %257 = add nsw i32 %256, 1
  store i32 %257, ptr %255, align 8, !tbaa !105
  br label %258

258:                                              ; preds = %250, %247
  %259 = load ptr, ptr %7, align 8, !tbaa !29
  %260 = getelementptr inbounds nuw %struct.Map_NodeStruct_t_, ptr %259, i32 0, i32 7
  %261 = getelementptr inbounds [3 x float], ptr %260, i64 0, i64 1
  store float -1.000000e+00, ptr %261, align 4, !tbaa !52
  %262 = load ptr, ptr %7, align 8, !tbaa !29
  %263 = getelementptr inbounds nuw %struct.Map_NodeStruct_t_, ptr %262, i32 0, i32 7
  %264 = getelementptr inbounds [3 x float], ptr %263, i64 0, i64 0
  store float -1.000000e+00, ptr %264, align 4, !tbaa !52
  %265 = load ptr, ptr %7, align 8, !tbaa !29
  call void @llvm.lifetime.end.p0(i64 8, ptr %7) #12
  ret ptr %265
}