; Function Attrs: nounwind uwtable
define noundef ptr @Map_NodeCreate(ptr noundef %0, ptr noundef %1, ptr noundef %2) local_unnamed_addr #1 {
  %4 = getelementptr inbounds nuw i8, ptr %0, i64 1776
  %5 = load ptr, ptr %4, align 8, !tbaa !91
  %6 = tail call ptr @Extra_MmFixedEntryFetch(ptr noundef %5) #23
  %7 = getelementptr inbounds nuw i8, ptr %6, i64 8
  tail call void @llvm.memset.p0.i64(ptr noundef nonnull align 8 dereferenceable(184) %7, i8 0, i64 176, i1 false)
  %8 = getelementptr inbounds nuw i8, ptr %6, i64 120
  %9 = getelementptr inbounds nuw i8, ptr %6, i64 128
  store float 0x47B9999980000000, ptr %9, align 8, !tbaa !93
  %10 = getelementptr inbounds nuw i8, ptr %6, i64 124
  store float 0x47B9999980000000, ptr %10, align 4, !tbaa !94
  store float 0x47B9999980000000, ptr %8, align 8, !tbaa !95
  %11 = getelementptr inbounds nuw i8, ptr %6, i64 132
  %12 = getelementptr inbounds nuw i8, ptr %6, i64 140
  store float 0x47B9999980000000, ptr %12, align 4, !tbaa !93
  %13 = getelementptr inbounds nuw i8, ptr %6, i64 136
  store float 0x47B9999980000000, ptr %13, align 4, !tbaa !94
  store float 0x47B9999980000000, ptr %11, align 4, !tbaa !95
  %14 = getelementptr inbounds nuw i8, ptr %6, i64 64
  store ptr %1, ptr %14, align 8, !tbaa !27
  %15 = getelementptr inbounds nuw i8, ptr %6, i64 72
  store ptr %2, ptr %15, align 8, !tbaa !65
  store ptr %0, ptr %6, align 8, !tbaa !59
  %16 = getelementptr inbounds nuw i8, ptr %0, i64 44
  %17 = load i32, ptr %16, align 4, !tbaa !90
  %18 = add nsw i32 %17, 1
  store i32 %18, ptr %16, align 4, !tbaa !90
  %19 = getelementptr inbounds nuw i8, ptr %6, i64 16
  store i32 %17, ptr %19, align 8, !tbaa !61
  %20 = icmp sgt i32 %17, -1
  br i1 %20, label %21, label %24

21:                                               ; preds = %3
  %22 = getelementptr inbounds nuw i8, ptr %0, i64 56
  %23 = load ptr, ptr %22, align 8, !tbaa !96
  tail call void @Map_NodeVecPush(ptr noundef %23, ptr noundef nonnull %6) #23
  br label %28

24:                                               ; preds = %3
  %25 = getelementptr inbounds nuw i8, ptr %6, i64 28
  %26 = load i32, ptr %25, align 4
  %27 = or i32 %26, 8
  store i32 %27, ptr %25, align 4
  br label %28

28:                                               ; preds = %24, %21
  %.not = icmp eq ptr %1, null
  br i1 %.not, label %.critedge, label %29

29:                                               ; preds = %28
  %.not51 = icmp eq ptr %2, null
  %30 = load ptr, ptr %14, align 8, !tbaa !27
  %31 = ptrtoint ptr %30 to i64
  %32 = and i64 %31, -2
  %33 = inttoptr i64 %32 to ptr
  %34 = getelementptr inbounds nuw i8, ptr %33, i64 28
  %35 = load i32, ptr %34, align 4
  br i1 %.not51, label %85, label %36

36:                                               ; preds = %29
  %37 = lshr i32 %35, 5
  %38 = and i32 %37, 65535
  %39 = load ptr, ptr %15, align 8, !tbaa !65
  %40 = ptrtoint ptr %39 to i64
  %41 = and i64 %40, -2
  %42 = inttoptr i64 %41 to ptr
  %43 = getelementptr inbounds nuw i8, ptr %42, i64 28
  %44 = load i32, ptr %43, align 4
  %45 = lshr i32 %44, 5
  %46 = and i32 %45, 65535
  %. = tail call i32 @llvm.umax.i32(i32 %38, i32 %46)
  %47 = getelementptr inbounds nuw i8, ptr %6, i64 28
  %48 = load i32, ptr %47, align 4
  %49 = shl nuw nsw i32 %., 5
  %50 = add nuw nsw i32 %49, 32
  %51 = and i32 %50, 2097120
  %52 = and i32 %48, -2097121
  %53 = or disjoint i32 %51, %52
  store i32 %53, ptr %47, align 4
  %54 = ptrtoint ptr %1 to i64
  %55 = and i64 %54, 1
  %.not54 = icmp eq i64 %55, 0
  br i1 %.not54, label %62, label %56

56:                                               ; preds = %36
  %57 = and i64 %54, -2
  %58 = inttoptr i64 %57 to ptr
  %59 = getelementptr inbounds nuw i8, ptr %58, i64 28
  %60 = load i32, ptr %59, align 4
  %.lobit56 = and i32 %60, 8
  %61 = xor i32 %.lobit56, 8
  br label %66

62:                                               ; preds = %36
  %63 = getelementptr inbounds nuw i8, ptr %1, i64 28
  %64 = load i32, ptr %63, align 4
  %65 = and i32 %64, 8
  br label %66

66:                                               ; preds = %62, %56
  %67 = phi i32 [ %61, %56 ], [ %65, %62 ]
  %68 = ptrtoint ptr %2 to i64
  %69 = and i64 %68, 1
  %.not57 = icmp eq i64 %69, 0
  br i1 %.not57, label %76, label %70

70:                                               ; preds = %66
  %71 = and i64 %68, -2
  %72 = inttoptr i64 %71 to ptr
  %73 = getelementptr inbounds nuw i8, ptr %72, i64 28
  %74 = load i32, ptr %73, align 4
  %.lobit59 = and i32 %74, 8
  %75 = xor i32 %.lobit59, 8
  br label %80

76:                                               ; preds = %66
  %77 = getelementptr inbounds nuw i8, ptr %2, i64 28
  %78 = load i32, ptr %77, align 4
  %79 = and i32 %78, 8
  br label %80

80:                                               ; preds = %76, %70
  %81 = phi i32 [ %75, %70 ], [ %79, %76 ]
  %82 = and i32 %67, %81
  %83 = and i32 %53, -9
  %84 = or disjoint i32 %82, %83
  store i32 %84, ptr %47, align 4
  br label %107

85:                                               ; preds = %29
  %86 = and i32 %35, 2097120
  %87 = getelementptr inbounds nuw i8, ptr %6, i64 28
  %88 = load i32, ptr %87, align 4
  %89 = and i32 %88, -2097121
  %90 = or disjoint i32 %89, %86
  store i32 %90, ptr %87, align 4
  %91 = ptrtoint ptr %1 to i64
  %92 = and i64 %91, 1
  %.not52 = icmp eq i64 %92, 0
  br i1 %.not52, label %99, label %93

93:                                               ; preds = %85
  %94 = and i64 %91, -2
  %95 = inttoptr i64 %94 to ptr
  %96 = getelementptr inbounds nuw i8, ptr %95, i64 28
  %97 = load i32, ptr %96, align 4
  %.lobit = and i32 %97, 8
  %98 = xor i32 %.lobit, 8
  br label %103

99:                                               ; preds = %85
  %100 = getelementptr inbounds nuw i8, ptr %1, i64 28
  %101 = load i32, ptr %100, align 4
  %102 = and i32 %101, 8
  br label %103

103:                                              ; preds = %99, %93
  %104 = phi i32 [ %98, %93 ], [ %102, %99 ]
  %105 = and i32 %90, -9
  %106 = or i32 %104, %105
  store i32 %106, ptr %87, align 4
  br label %107

107:                                              ; preds = %103, %80
  %.pre-phi = phi i64 [ %91, %103 ], [ %54, %80 ]
  %108 = and i64 %.pre-phi, -2
  %109 = inttoptr i64 %108 to ptr
  %110 = getelementptr inbounds nuw i8, ptr %109, i64 24
  %111 = load i32, ptr %110, align 8, !tbaa !99
  %112 = add nsw i32 %111, 1
  store i32 %112, ptr %110, align 8, !tbaa !99
  br label %.critedge

.critedge:                                        ; preds = %28, %107
  %.not60 = icmp eq ptr %2, null
  br i1 %.not60, label %120, label %113

113:                                              ; preds = %.critedge
  %114 = ptrtoint ptr %2 to i64
  %115 = and i64 %114, -2
  %116 = inttoptr i64 %115 to ptr
  %117 = getelementptr inbounds nuw i8, ptr %116, i64 24
  %118 = load i32, ptr %117, align 8, !tbaa !99
  %119 = add nsw i32 %118, 1
  store i32 %119, ptr %117, align 8, !tbaa !99
  br label %120

120:                                              ; preds = %113, %.critedge
  %121 = getelementptr inbounds nuw i8, ptr %6, i64 44
  %122 = getelementptr inbounds nuw i8, ptr %6, i64 48
  store float -1.000000e+00, ptr %122, align 4, !tbaa !81
  store float -1.000000e+00, ptr %121, align 4, !tbaa !81
  ret ptr %6
}